target datalayout = "e-m:e-p270:32:32-p271:32:32-p272:64:64-i64:64-i128:128-f80:128-n8:16:32:64-S128"
target triple = "x86_64-pc-linux-gnu"

%struct.expert_field = type { i32, i32 }
%struct._packet_info = type { ptr, ptr, i32, i32, %struct.nstime_t, %struct.nstime_t, %struct.nstime_t, i8, ptr, ptr, ptr, ptr, %struct._address, %struct._address, %struct._address, %struct._address, %struct._address, %struct._address, i32, ptr, i8, [3 x i8], %struct.anon, i32, i32, i32, i32, ptr, i8, ptr, ptr, i16, i16, i32, i32, i16, i32, i32, ptr, ptr, ptr, i8, i8, i16, i16, i16, i32, i16, i16, ptr, ptr, ptr, ptr, ptr, i32, i32 }
%struct.nstime_t = type { i64, i32 }
%struct._address = type { i32, i32, ptr, ptr }
%struct.anon = type { i8, [3 x i8] }

@ei_bssgp_missing_mandatory_element = internal global %struct.expert_field zeroinitializer, align 4
@.str.6 = private unnamed_addr constant [71 x i8] c"Missing Mandatory element (0x%02x) %s%s, rest of dissection is suspect\00", align 1
@.str.7 = private unnamed_addr constant [1 x i8] zeroinitializer, align 1
@ei_bssgp_extraneous_data = internal global %struct.expert_field zeroinitializer, align 4

; Function Attrs: null_pointer_is_valid sspstrong uwtable
define internal void @bssgp_dummy_paging_ps(ptr noundef %0, ptr noundef %1, ptr noundef %2, i32 noundef %3, i32 noundef %4) #1 {
  %6 = alloca ptr, align 8
  %7 = alloca ptr, align 8
  %8 = alloca ptr, align 8
  %9 = alloca i32, align 4
  %10 = alloca i32, align 4
  %11 = alloca i32, align 4
  %12 = alloca i32, align 4
  %13 = alloca i32, align 4
  %14 = alloca i32, align 4
  store ptr %0, ptr %6, align 8
  store ptr %1, ptr %7, align 8
  store ptr %2, ptr %8, align 8
  store i32 %3, ptr %9, align 4
  store i32 %4, ptr %10, align 4
  call void @llvm.lifetime.start.p0(i64 4, ptr %11) #4
  call void @llvm.lifetime.start.p0(i64 4, ptr %12) #4
  call void @llvm.lifetime.start.p0(i64 4, ptr %13) #4
  %15 = load i32, ptr %9, align 4
  store i32 %15, ptr %11, align 4
  %16 = load i32, ptr %10, align 4
  store i32 %16, ptr %13, align 4
  %17 = load ptr, ptr %8, align 8
  %18 = getelementptr inbounds nuw %struct._packet_info, ptr %17, i32 0, i32 46
  store i32 1, ptr %18, align 8
  %19 = load i32, ptr %13, align 4
  %20 = icmp sgt i32 %19, 0
  br i1 %20, label %21, label %37

21:                                               ; preds = %5
  %22 = load ptr, ptr %6, align 8
  %23 = load ptr, ptr %7, align 8
  %24 = load ptr, ptr %8, align 8
  %25 = load i32, ptr %11, align 4
  %26 = load i32, ptr %13, align 4
  %27 = call zeroext i16 @elem_telv(ptr noundef %22, ptr noundef %23, ptr noundef %24, i8 noundef zeroext 13, i32 noundef 13, i32 noundef 13, i32 noundef %25, i32 noundef %26, ptr noundef null)
  %28 = zext i16 %27 to i32
  store i32 %28, ptr %12, align 4
  %29 = icmp ugt i32 %28, 0
  br i1 %29, label %30, label %37

30:                                               ; preds = %21
  %31 = load i32, ptr %12, align 4
  %32 = load i32, ptr %11, align 4
  %33 = add i32 %32, %31
  store i32 %33, ptr %11, align 4
  %34 = load i32, ptr %12, align 4
  %35 = load i32, ptr %13, align 4
  %36 = sub i32 %35, %34
  store i32 %36, ptr %13, align 4
  br label %44

37:                                               ; preds = %21, %5
  %38 = load ptr, ptr %7, align 8
  %39 = load ptr, ptr %8, align 8
  %40 = load ptr, ptr %6, align 8
  %41 = load i32, ptr %11, align 4
  %42 = call ptr @get_gsm_a_msg_string(i32 noundef 13, i32 noundef 13)
  %43 = call ptr (ptr, ptr, ptr, ptr, i32, i32, ptr, ...) @proto_tree_add_expert_format(ptr noundef %38, ptr noundef %39, ptr noundef @ei_bssgp_missing_mandatory_element, ptr noundef %40, i32 noundef %41, i32 noundef 0, ptr noundef @.str.6, i32 noundef 13, ptr noundef %42, ptr noundef @.str.7)
  br label %44

44:                                               ; preds = %37, %30
  %45 = load i32, ptr %13, align 4
  %46 = icmp sle i32 %45, 0
  br i1 %46, label %47, label %48

47:                                               ; preds = %44
  store i32 1, ptr %14, align 4
  br label %100

48:                                               ; preds = %44
  %49 = load ptr, ptr %6, align 8
  %50 = load ptr, ptr %7, align 8
  %51 = load ptr, ptr %8, align 8
  %52 = load i32, ptr %11, align 4
  %53 = load i32, ptr %13, align 4
  %54 = call zeroext i16 @elem_telv(ptr noundef %49, ptr noundef %50, ptr noundef %51, i8 noundef zeroext 27, i32 noundef 5, i32 noundef 18, i32 noundef %52, i32 noundef %53, ptr noundef null)
  %55 = zext i16 %54 to i32
  store i32 %55, ptr %12, align 4
  %56 = icmp ugt i32 %55, 0
  br i1 %56, label %57, label %64

57:                                               ; preds = %48
  %58 = load i32, ptr %12, align 4
  %59 = load i32, ptr %11, align 4
  %60 = add i32 %59, %58
  store i32 %60, ptr %11, align 4
  %61 = load i32, ptr %12, align 4
  %62 = load i32, ptr %13, align 4
  %63 = sub i32 %62, %61
  store i32 %63, ptr %13, align 4
  br label %64

64:                                               ; preds = %57, %48
  %65 = load i32, ptr %13, align 4
  %66 = icmp sle i32 %65, 0
  br i1 %66, label %67, label %68

67:                                               ; preds = %64
  store i32 1, ptr %14, align 4
  br label %100

68:                                               ; preds = %64
  %69 = load ptr, ptr %6, align 8
  %70 = load ptr, ptr %7, align 8
  %71 = load ptr, ptr %8, align 8
  %72 = load i32, ptr %11, align 4
  %73 = load i32, ptr %13, align 4
  %74 = call zeroext i16 @elem_telv(ptr noundef %69, ptr noundef %70, ptr noundef %71, i8 noundef zeroext -110, i32 noundef 13, i32 noundef 107, i32 noundef %72, i32 noundef %73, ptr noundef null)
  %75 = zext i16 %74 to i32
  store i32 %75, ptr %12, align 4
  %76 = icmp ugt i32 %75, 0
  br i1 %76, label %77, label %84

77:                                               ; preds = %68
  %78 = load i32, ptr %12, align 4
  %79 = load i32, ptr %11, align 4
  %80 = add i32 %79, %78
  store i32 %80, ptr %11, align 4
  %81 = load i32, ptr %12, align 4
  %82 = load i32, ptr %13, align 4
  %83 = sub i32 %82, %81
  store i32 %83, ptr %13, align 4
  br label %84

84:                                               ; preds = %77, %68
  %85 = load i32, ptr %13, align 4
  %86 = icmp ugt i32 %85, 0
  br i1 %86, label %87, label %99

87:                                               ; preds = %84
  %88 = load ptr, ptr %7, align 8
  %89 = load ptr, ptr %8, align 8
  %90 = load ptr, ptr %6, align 8
  %91 = load i32, ptr %11, align 4
  %92 = load i32, ptr %13, align 4
  %93 = sub i32 %92, 0
  %94 = call ptr @proto_tree_add_expert(ptr noundef %88, ptr noundef %89, ptr noundef @ei_bssgp_extraneous_data, ptr noundef %90, i32 noundef %91, i32 noundef %93)
  %95 = load i32, ptr %13, align 4
  %96 = sub i32 %95, 0
  %97 = load i32, ptr %11, align 4
  %98 = add i32 %97, %96
  store i32 %98, ptr %11, align 4
  br label %99

99:                                               ; preds = %87, %84
  store i32 0, ptr %14, align 4
  br label %100

100:                                              ; preds = %99, %67, %47
  call void @llvm.lifetime.end.p0(i64 4, ptr %13) #4
  call void @llvm.lifetime.end.p0(i64 4, ptr %12) #4
  call void @llvm.lifetime.end.p0(i64 4, ptr %11) #4
  %101 = load i32, ptr %14, align 4
  switch i32 %101, label %103 [
    i32 0, label %102
    i32 1, label %102
  ]

102:                                              ; preds = %100, %100
  ret void

103:                                              ; preds = %100
  unreachable
}