; Function Attrs: null_pointer_is_valid sspstrong uwtable
define internal void @bssgp_dummy_paging_ps(ptr noundef %0, ptr noundef %1, ptr noundef initializes((384, 388)) %2, i32 noundef %3, i32 noundef %4) #1 {
  %6 = getelementptr inbounds nuw i8, ptr %2, i64 384
  store i32 1, ptr %6, align 8
  %7 = icmp sgt i32 %4, 0
  br i1 %7, label %8, label %14

8:                                                ; preds = %5
  %9 = tail call zeroext i16 @elem_telv(ptr noundef %0, ptr noundef %1, ptr noundef %2, i8 noundef zeroext 13, i32 noundef 13, i32 noundef 13, i32 noundef %3, i32 noundef %4, ptr noundef null)
  %.not = icmp eq i16 %9, 0
  br i1 %.not, label %14, label %10

10:                                               ; preds = %8
  %11 = zext i16 %9 to i32
  %12 = add i32 %3, %11
  %13 = sub nsw i32 %4, %11
  br label %17

14:                                               ; preds = %8, %5
  %15 = tail call ptr @get_gsm_a_msg_string(i32 noundef 13, i32 noundef 13)
  %16 = tail call ptr (ptr, ptr, ptr, ptr, i32, i32, ptr, ...) @proto_tree_add_expert_format(ptr noundef %1, ptr noundef %2, ptr noundef nonnull @ei_bssgp_missing_mandatory_element, ptr noundef %0, i32 noundef %3, i32 noundef 0, ptr noundef nonnull @.str.6, i32 noundef 13, ptr noundef %15, ptr noundef nonnull @.str.7)
  br label %17

17:                                               ; preds = %14, %10
  %.044 = phi i32 [ %12, %10 ], [ %3, %14 ]
  %.0 = phi i32 [ %13, %10 ], [ %4, %14 ]
  %18 = icmp slt i32 %.0, 1
  br i1 %18, label %32, label %19

19:                                               ; preds = %17
  %20 = tail call zeroext i16 @elem_telv(ptr noundef %0, ptr noundef %1, ptr noundef %2, i8 noundef zeroext 27, i32 noundef 5, i32 noundef 18, i32 noundef %.044, i32 noundef %.0, ptr noundef null)
  %21 = zext i16 %20 to i32
  %22 = sub nsw i32 %.0, %21
  %23 = icmp slt i32 %22, 1
  br i1 %23, label %32, label %24

24:                                               ; preds = %19
  %25 = add i32 %.044, %21
  %26 = tail call zeroext i16 @elem_telv(ptr noundef %0, ptr noundef %1, ptr noundef %2, i8 noundef zeroext -110, i32 noundef 13, i32 noundef 107, i32 noundef %25, i32 noundef %22, ptr noundef null)
  %27 = zext i16 %26 to i32
  %.not53 = icmp eq i32 %22, %27
  br i1 %.not53, label %32, label %28

28:                                               ; preds = %24
  %29 = sub nsw i32 %22, %27
  %30 = add i32 %25, %27
  %31 = tail call ptr @proto_tree_add_expert(ptr noundef %1, ptr noundef %2, ptr noundef nonnull @ei_bssgp_extraneous_data, ptr noundef %0, i32 noundef %30, i32 noundef %29)
  br label %32

32:                                               ; preds = %24, %28, %19, %17
  ret void
}